; Function Attrs: mustprogress uwtable
define hidden void @_ZN6Assimp4Ogre20OgreBinarySerializer10ReadStringB5cxx11Em(ptr noalias nonnull sret(%"class.std::__cxx11::basic_string") align 8 %agg.result, ptr nocapture noundef nonnull readonly align 8 dereferenceable(20) %this, i64 noundef %len) local_unnamed_addr #2 align 2 personality ptr @__gxx_personality_v0 {
entry:
  tail call void @_ZNSt7__cxx1112basic_stringIcSt11char_traitsIcESaIcEEC1Ev(ptr noundef nonnull align 8 dereferenceable(32) %agg.result) #19
  invoke void @_ZNSt7__cxx1112basic_stringIcSt11char_traitsIcESaIcEE6resizeEm(ptr noundef nonnull align 8 dereferenceable(32) %agg.result, i64 noundef %len)
          to label %invoke.cont unwind label %lpad

invoke.cont:                                      ; preds = %entry
  %call = invoke noundef nonnull align 1 dereferenceable(1) ptr @_ZNSt7__cxx1112basic_stringIcSt11char_traitsIcESaIcEEixEm(ptr noundef nonnull align 8 dereferenceable(32) %agg.result, i64 noundef 0)
          to label %invoke.cont2 unwind label %lpad

invoke.cont2:                                     ; preds = %invoke.cont
  %m_reader.i.i = getelementptr inbounds i8, ptr %this, i64 8
  %0 = load ptr, ptr %m_reader.i.i, align 8
  %mCurrent.i.i.i.i = getelementptr inbounds i8, ptr %0, i64 24
  %1 = load ptr, ptr %mCurrent.i.i.i.i, align 8
  %add.ptr.i.i.i = getelementptr inbounds i8, ptr %1, i64 %len
  store ptr %add.ptr.i.i.i, ptr %mCurrent.i.i.i.i, align 8
  %mLimit.i.i.i.i = getelementptr inbounds i8, ptr %0, i64 40
  %2 = load ptr, ptr %mLimit.i.i.i.i, align 8
  %cmp.i.i.i.i = icmp ult ptr %2, %add.ptr.i.i.i
  %mBuffer.i.i.i.i = getelementptr inbounds i8, ptr %0, i64 16
  %3 = load ptr, ptr %mBuffer.i.i.i.i, align 8
  %cmp4.i.i.i.i = icmp ugt ptr %3, %add.ptr.i.i.i
  %or.cond.i.i.i.i = select i1 %cmp.i.i.i.i, i1 true, i1 %cmp4.i.i.i.i
  br i1 %or.cond.i.i.i.i, label %if.then.i.i.i.i, label %nrvo.skipdtor

if.then.i.i.i.i:                                  ; preds = %invoke.cont2
  %exception.i.i.i.i = tail call ptr @__cxa_allocate_exception(i64 16) #19
  invoke void @_ZN17DeadlyImportErrorC2EPKc(ptr noundef nonnull align 8 dereferenceable(16) %exception.i.i.i.i, ptr noundef nonnull @.str.68)
          to label %invoke.cont.i.i.i.i unwind label %lpad.i.i.i.i

invoke.cont.i.i.i.i:                              ; preds = %if.then.i.i.i.i
  invoke void @__cxa_throw(ptr nonnull %exception.i.i.i.i, ptr nonnull @_ZTI17DeadlyImportError, ptr nonnull @_ZN17DeadlyImportErrorD2Ev) #20
          to label %.noexc unwind label %lpad

.noexc:                                           ; preds = %invoke.cont.i.i.i.i
  unreachable

lpad.i.i.i.i:                                     ; preds = %if.then.i.i.i.i
  %4 = landingpad { ptr, i32 }
          cleanup
  tail call void @__cxa_free_exception(ptr %exception.i.i.i.i) #19
  br label %lpad.body

lpad:                                             ; preds = %invoke.cont.i.i.i.i, %invoke.cont, %entry
  %5 = landingpad { ptr, i32 }
          cleanup
  br label %lpad.body

lpad.body:                                        ; preds = %lpad.i.i.i.i, %lpad
  %eh.lpad-body = phi { ptr, i32 } [ %5, %lpad ], [ %4, %lpad.i.i.i.i ]
  tail call void @_ZNSt7__cxx1112basic_stringIcSt11char_traitsIcESaIcEED1Ev(ptr noundef nonnull align 8 dereferenceable(32) %agg.result) #19
  resume { ptr, i32 } %eh.lpad-body

nrvo.skipdtor:                                    ; preds = %invoke.cont2
  tail call void @llvm.memcpy.p0.p0.i64(ptr nonnull align 1 %call, ptr align 1 %1, i64 %len, i1 false)
  ret void
}